target datalayout = "e-m:e-p270:32:32-p271:32:32-p272:64:64-i64:64-i128:128-f80:128-n8:16:32:64-S128"
target triple = "x86_64-pc-linux-gnu"

%struct.TS_resp_ctx = type { ptr, ptr, ptr, ptr, ptr, ptr, ptr, ptr, ptr, ptr, ptr, i32, i32, ptr, ptr, ptr, ptr, ptr, ptr, ptr, ptr, ptr, ptr, ptr }

@.str = private unnamed_addr constant [35 x i8] c"../openssl/crypto/ts/ts_rsp_sign.c\00", align 1

; Function Attrs: nounwind uwtable
define ptr @TS_RESP_CTX_new_ex(ptr noundef %0, ptr noundef %1) #0 {
  %3 = alloca ptr, align 8
  %4 = alloca ptr, align 8
  %5 = alloca ptr, align 8
  %6 = alloca ptr, align 8
  %7 = alloca i32, align 4
  store ptr %0, ptr %4, align 8, !tbaa !3
  store ptr %1, ptr %5, align 8, !tbaa !8
  call void @llvm.lifetime.start.p0(i64 8, ptr %6) #7
  %8 = call noalias ptr @CRYPTO_zalloc(i64 noundef 184, ptr noundef @.str, i32 noundef 98)
  store ptr %8, ptr %6, align 8, !tbaa !10
  %9 = icmp eq ptr %8, null
  br i1 %9, label %10, label %11

10:                                               ; preds = %2
  store ptr null, ptr %3, align 8
  store i32 1, ptr %7, align 4
  br label %37

11:                                               ; preds = %2
  %12 = load ptr, ptr %5, align 8, !tbaa !8
  %13 = icmp ne ptr %12, null
  br i1 %13, label %14, label %26

14:                                               ; preds = %11
  %15 = load ptr, ptr %5, align 8, !tbaa !8
  %16 = call noalias ptr @CRYPTO_strdup(ptr noundef %15, ptr noundef @.str, i32 noundef 102)
  %17 = load ptr, ptr %6, align 8, !tbaa !10
  %18 = getelementptr inbounds nuw %struct.TS_resp_ctx, ptr %17, i32 0, i32 23
  store ptr %16, ptr %18, align 8, !tbaa !12
  %19 = load ptr, ptr %6, align 8, !tbaa !10
  %20 = getelementptr inbounds nuw %struct.TS_resp_ctx, ptr %19, i32 0, i32 23
  %21 = load ptr, ptr %20, align 8, !tbaa !12
  %22 = icmp eq ptr %21, null
  br i1 %22, label %23, label %25

23:                                               ; preds = %14
  %24 = load ptr, ptr %6, align 8, !tbaa !10
  call void @CRYPTO_free(ptr noundef %24, ptr noundef @.str, i32 noundef 104)
  store ptr null, ptr %3, align 8
  store i32 1, ptr %7, align 4
  br label %37

25:                                               ; preds = %14
  br label %26

26:                                               ; preds = %25, %11
  %27 = load ptr, ptr %4, align 8, !tbaa !3
  %28 = load ptr, ptr %6, align 8, !tbaa !10
  %29 = getelementptr inbounds nuw %struct.TS_resp_ctx, ptr %28, i32 0, i32 22
  store ptr %27, ptr %29, align 8, !tbaa !26
  %30 = load ptr, ptr %6, align 8, !tbaa !10
  %31 = getelementptr inbounds nuw %struct.TS_resp_ctx, ptr %30, i32 0, i32 13
  store ptr @def_serial_cb, ptr %31, align 8, !tbaa !27
  %32 = load ptr, ptr %6, align 8, !tbaa !10
  %33 = getelementptr inbounds nuw %struct.TS_resp_ctx, ptr %32, i32 0, i32 15
  store ptr @def_time_cb, ptr %33, align 8, !tbaa !28
  %34 = load ptr, ptr %6, align 8, !tbaa !10
  %35 = getelementptr inbounds nuw %struct.TS_resp_ctx, ptr %34, i32 0, i32 17
  store ptr @def_extension_cb, ptr %35, align 8, !tbaa !29
  %36 = load ptr, ptr %6, align 8, !tbaa !10
  store ptr %36, ptr %3, align 8
  store i32 1, ptr %7, align 4
  br label %37

37:                                               ; preds = %26, %23, %10
  call void @llvm.lifetime.end.p0(i64 8, ptr %6) #7
  %38 = load ptr, ptr %3, align 8
  ret ptr %38
}