; Function Attrs: nounwind uwtable
define ptr @TS_RESP_CTX_new_ex(ptr noundef %0, ptr noundef %1) local_unnamed_addr #0 {
  %3 = tail call noalias ptr @CRYPTO_zalloc(i64 noundef 184, ptr noundef nonnull @.str, i32 noundef 98) #9
  %4 = icmp eq ptr %3, null
  br i1 %4, label %16, label %5

5:                                                ; preds = %2
  %.not = icmp eq ptr %1, null
  br i1 %.not, label %11, label %6

6:                                                ; preds = %5
  %7 = tail call noalias ptr @CRYPTO_strdup(ptr noundef nonnull %1, ptr noundef nonnull @.str, i32 noundef 102) #9
  %8 = getelementptr inbounds nuw i8, ptr %3, i64 176
  store ptr %7, ptr %8, align 8, !tbaa !3
  %9 = icmp eq ptr %7, null
  br i1 %9, label %10, label %11

10:                                               ; preds = %6
  tail call void @CRYPTO_free(ptr noundef nonnull %3, ptr noundef nonnull @.str, i32 noundef 104) #9
  br label %16

11:                                               ; preds = %6, %5
  %12 = getelementptr inbounds nuw i8, ptr %3, i64 168
  store ptr %0, ptr %12, align 8, !tbaa !22
  %13 = getelementptr inbounds nuw i8, ptr %3, i64 96
  store ptr @def_serial_cb, ptr %13, align 8, !tbaa !23
  %14 = getelementptr inbounds nuw i8, ptr %3, i64 112
  store ptr @def_time_cb, ptr %14, align 8, !tbaa !24
  %15 = getelementptr inbounds nuw i8, ptr %3, i64 128
  store ptr @def_extension_cb, ptr %15, align 8, !tbaa !25
  br label %16

16:                                               ; preds = %2, %11, %10
  %.0 = phi ptr [ null, %10 ], [ %3, %11 ], [ null, %2 ]
  ret ptr %.0
}